; Function Attrs: mustprogress nofree norecurse nosync nounwind willreturn memory(argmem: read) uwtable
define noundef range(i32 0, -1) i32 @_ZNK10open_spiel10battleship14BattleshipGame13MaxGameLengthEv(ptr noundef nonnull readonly align 8 captures(none) dereferenceable(328) %0) unnamed_addr #11 align 2 {
  %2 = getelementptr inbounds nuw i8, ptr %0, i64 288
  %3 = getelementptr inbounds nuw i8, ptr %0, i64 296
  %4 = load ptr, ptr %3, align 8
  %5 = load ptr, ptr %2, align 8
  %6 = ptrtoint ptr %4 to i64
  %7 = ptrtoint ptr %5 to i64
  %8 = sub i64 %6, %7
  %9 = lshr exact i64 %8, 4
  %10 = getelementptr inbounds nuw i8, ptr %0, i64 312
  %11 = load i32, ptr %10, align 8
  %12 = trunc i64 %9 to i32
  %.tr = add i32 %11, %12
  %13 = shl i32 %.tr, 1
  ret i32 %13
}